target datalayout = "e-m:e-p270:32:32-p271:32:32-p272:64:64-i64:64-i128:128-f80:128-n8:16:32:64-S128"
target triple = "x86_64-pc-linux-gnu"

%struct.AVStream = type { ptr, i32, i32, ptr, ptr, %struct.AVRational, i64, i64, i64, i32, i32, %struct.AVRational, ptr, %struct.AVRational, %struct.AVPacket, i32, %struct.AVRational, i32 }
%struct.AVPacket = type { ptr, i64, i64, ptr, i32, i32, i32, ptr, i32, i64, i64, ptr, ptr, %struct.AVRational }
%struct.AVRational = type { i32, i32 }
%struct.AVFormatContext = type { ptr, ptr, ptr, ptr, ptr, i32, i32, ptr, i32, ptr, i32, ptr, ptr, i64, i64, i64, i32, i32, i32, i64, i64, ptr, i32, i32, ptr, i32, i32, i32, i32, ptr, i64, i32, i32, %struct.AVIOInterruptCB, i32, i32, i32, i32, i64, i32, i32, i32, i32, i32, i32, i32, i32, i32, i32, i32, i32, i64, i32, i32, i32, i32, i32, ptr, ptr, ptr, ptr, i32, ptr, ptr, ptr, ptr, i32, ptr, ptr, i64, ptr, ptr, ptr, i64 }
%struct.AVIOInterruptCB = type { ptr, ptr }
%struct.ogg = type { ptr, i32, i32, i32, i64, ptr }
%struct.ogg_stream = type { ptr, i32, i32, i32, i32, i32, i32, i32, i64, i64, i64, i64, i64, i64, i32, ptr, i32, i32, i32, [255 x i8], i32, i32, i32, i32, i32, i32, i32, i32, ptr, i64, ptr }

; Function Attrs: nounwind uwtable
define i32 @ff_vorbis_stream_comment(ptr noundef %0, ptr noundef %1, ptr noundef %2, i32 noundef %3) #0 {
  %5 = alloca ptr, align 8
  %6 = alloca ptr, align 8
  %7 = alloca ptr, align 8
  %8 = alloca i32, align 4
  %9 = alloca i32, align 4
  store ptr %0, ptr %5, align 8, !tbaa !4
  store ptr %1, ptr %6, align 8, !tbaa !9
  store ptr %2, ptr %7, align 8, !tbaa !11
  store i32 %3, ptr %8, align 4, !tbaa !13
  call void @llvm.lifetime.start.p0(i64 4, ptr %9) #8
  %10 = load ptr, ptr %5, align 8, !tbaa !4
  %11 = load ptr, ptr %6, align 8, !tbaa !9
  %12 = getelementptr inbounds nuw %struct.AVStream, ptr %11, i32 0, i32 12
  %13 = load ptr, ptr %7, align 8, !tbaa !11
  %14 = load i32, ptr %8, align 4, !tbaa !13
  %15 = call i32 @ff_vorbis_comment(ptr noundef %10, ptr noundef %12, ptr noundef %13, i32 noundef %14, i32 noundef 1)
  store i32 %15, ptr %9, align 4, !tbaa !13
  %16 = load i32, ptr %9, align 4, !tbaa !13
  %17 = icmp sgt i32 %16, 0
  br i1 %17, label %18, label %23

18:                                               ; preds = %4
  %19 = load ptr, ptr %6, align 8, !tbaa !9
  %20 = getelementptr inbounds nuw %struct.AVStream, ptr %19, i32 0, i32 15
  %21 = load i32, ptr %20, align 8, !tbaa !15
  %22 = or i32 %21, 1
  store i32 %22, ptr %20, align 8, !tbaa !15
  br label %23

23:                                               ; preds = %18, %4
  %24 = load i32, ptr %9, align 4, !tbaa !13
  call void @llvm.lifetime.end.p0(i64 4, ptr %9) #8
  ret i32 %24
}

; Function Attrs: nounwind uwtable
define internal i32 @vorbis_update_metadata(ptr noundef %0, i32 noundef %1) #0 {
  %3 = alloca i32, align 4
  %4 = alloca ptr, align 8
  %5 = alloca i32, align 4
  %6 = alloca ptr, align 8
  %7 = alloca ptr, align 8
  %8 = alloca ptr, align 8
  %9 = alloca i32, align 4
  %10 = alloca i32, align 4
  store ptr %0, ptr %4, align 8, !tbaa !4
  store i32 %1, ptr %5, align 4, !tbaa !13
  call void @llvm.lifetime.start.p0(i64 8, ptr %6) #8
  %11 = load ptr, ptr %4, align 8, !tbaa !4
  %12 = getelementptr inbounds nuw %struct.AVFormatContext, ptr %11, i32 0, i32 3
  %13 = load ptr, ptr %12, align 8, !tbaa !36
  store ptr %13, ptr %6, align 8, !tbaa !47
  call void @llvm.lifetime.start.p0(i64 8, ptr %7) #8
  %14 = load ptr, ptr %6, align 8, !tbaa !47
  %15 = getelementptr inbounds nuw %struct.ogg, ptr %14, i32 0, i32 0
  %16 = load ptr, ptr %15, align 8, !tbaa !50
  %17 = load i32, ptr %5, align 4, !tbaa !13
  %18 = sext i32 %17 to i64
  %19 = getelementptr inbounds %struct.ogg_stream, ptr %16, i64 %18
  store ptr %19, ptr %7, align 8, !tbaa !54
  call void @llvm.lifetime.start.p0(i64 8, ptr %8) #8
  %20 = load ptr, ptr %4, align 8, !tbaa !4
  %21 = getelementptr inbounds nuw %struct.AVFormatContext, ptr %20, i32 0, i32 7
  %22 = load ptr, ptr %21, align 8, !tbaa !49
  %23 = load i32, ptr %5, align 4, !tbaa !13
  %24 = sext i32 %23 to i64
  %25 = getelementptr inbounds ptr, ptr %22, i64 %24
  %26 = load ptr, ptr %25, align 8, !tbaa !9
  store ptr %26, ptr %8, align 8, !tbaa !9
  call void @llvm.lifetime.start.p0(i64 4, ptr %9) #8
  %27 = load ptr, ptr %7, align 8, !tbaa !54
  %28 = getelementptr inbounds nuw %struct.ogg_stream, ptr %27, i32 0, i32 4
  %29 = load i32, ptr %28, align 4, !tbaa !65
  %30 = icmp ule i32 %29, 8
  br i1 %30, label %31, label %32

31:                                               ; preds = %2
  store i32 0, ptr %3, align 4
  store i32 1, ptr %10, align 4
  br label %79

32:                                               ; preds = %2
  %33 = load ptr, ptr %8, align 8, !tbaa !9
  %34 = getelementptr inbounds nuw %struct.AVStream, ptr %33, i32 0, i32 12
  call void @av_dict_free(ptr noundef %34)
  %35 = load ptr, ptr %4, align 8, !tbaa !4
  %36 = load ptr, ptr %8, align 8, !tbaa !9
  %37 = load ptr, ptr %7, align 8, !tbaa !54
  %38 = getelementptr inbounds nuw %struct.ogg_stream, ptr %37, i32 0, i32 0
  %39 = load ptr, ptr %38, align 8, !tbaa !55
  %40 = load ptr, ptr %7, align 8, !tbaa !54
  %41 = getelementptr inbounds nuw %struct.ogg_stream, ptr %40, i32 0, i32 3
  %42 = load i32, ptr %41, align 8, !tbaa !58
  %43 = zext i32 %42 to i64
  %44 = getelementptr inbounds nuw i8, ptr %39, i64 %43
  %45 = getelementptr inbounds i8, ptr %44, i64 7
  %46 = load ptr, ptr %7, align 8, !tbaa !54
  %47 = getelementptr inbounds nuw %struct.ogg_stream, ptr %46, i32 0, i32 4
  %48 = load i32, ptr %47, align 4, !tbaa !65
  %49 = sub i32 %48, 8
  %50 = call i32 @ff_vorbis_stream_comment(ptr noundef %35, ptr noundef %36, ptr noundef %45, i32 noundef %49)
  store i32 %50, ptr %9, align 4, !tbaa !13
  %51 = load i32, ptr %9, align 4, !tbaa !13
  %52 = icmp slt i32 %51, 0
  br i1 %52, label %53, label %55

53:                                               ; preds = %32
  %54 = load i32, ptr %9, align 4, !tbaa !13
  store i32 %54, ptr %3, align 4
  store i32 1, ptr %10, align 4
  br label %79

55:                                               ; preds = %32
  %56 = load ptr, ptr %7, align 8, !tbaa !54
  %57 = getelementptr inbounds nuw %struct.ogg_stream, ptr %56, i32 0, i32 28
  call void @av_freep(ptr noundef %57)
  %58 = load ptr, ptr %8, align 8, !tbaa !9
  %59 = getelementptr inbounds nuw %struct.AVStream, ptr %58, i32 0, i32 12
  %60 = load ptr, ptr %59, align 8, !tbaa !74
  %61 = icmp ne ptr %60, null
  br i1 %61, label %62, label %71

62:                                               ; preds = %55
  %63 = load ptr, ptr %8, align 8, !tbaa !9
  %64 = getelementptr inbounds nuw %struct.AVStream, ptr %63, i32 0, i32 12
  %65 = load ptr, ptr %64, align 8, !tbaa !74
  %66 = load ptr, ptr %7, align 8, !tbaa !54
  %67 = getelementptr inbounds nuw %struct.ogg_stream, ptr %66, i32 0, i32 29
  %68 = call ptr @av_packet_pack_dictionary(ptr noundef %65, ptr noundef %67)
  %69 = load ptr, ptr %7, align 8, !tbaa !54
  %70 = getelementptr inbounds nuw %struct.ogg_stream, ptr %69, i32 0, i32 28
  store ptr %68, ptr %70, align 8, !tbaa !102
  br label %77

71:                                               ; preds = %55
  %72 = call noalias ptr @av_mallocz(i64 noundef 1)
  %73 = load ptr, ptr %7, align 8, !tbaa !54
  %74 = getelementptr inbounds nuw %struct.ogg_stream, ptr %73, i32 0, i32 28
  store ptr %72, ptr %74, align 8, !tbaa !102
  %75 = load ptr, ptr %7, align 8, !tbaa !54
  %76 = getelementptr inbounds nuw %struct.ogg_stream, ptr %75, i32 0, i32 29
  store i64 0, ptr %76, align 8, !tbaa !103
  br label %77

77:                                               ; preds = %71, %62
  %78 = load i32, ptr %9, align 4, !tbaa !13
  store i32 %78, ptr %3, align 4
  store i32 1, ptr %10, align 4
  br label %79

79:                                               ; preds = %77, %53, %31
  call void @llvm.lifetime.end.p0(i64 4, ptr %9) #8
  call void @llvm.lifetime.end.p0(i64 8, ptr %8) #8
  call void @llvm.lifetime.end.p0(i64 8, ptr %7) #8
  call void @llvm.lifetime.end.p0(i64 8, ptr %6) #8
  %80 = load i32, ptr %3, align 4
  ret i32 %80
}