; Function Attrs: nounwind uwtable
define internal fastcc i32 @vorbis_update_metadata(ptr noundef %0, i32 noundef %1) unnamed_addr #0 {
  %3 = getelementptr inbounds nuw i8, ptr %0, i64 24
  %4 = load ptr, ptr %3, align 8, !tbaa !43
  %5 = load ptr, ptr %4, align 8, !tbaa !47
  %6 = sext i32 %1 to i64
  %7 = getelementptr inbounds %struct.ogg_stream, ptr %5, i64 %6
  %8 = getelementptr inbounds nuw i8, ptr %7, i64 20
  %9 = load i32, ptr %8, align 4, !tbaa !59
  %10 = icmp ult i32 %9, 9
  br i1 %10, label %40, label %11

11:                                               ; preds = %2
  %12 = getelementptr inbounds nuw i8, ptr %0, i64 48
  %13 = load ptr, ptr %12, align 8, !tbaa !44
  %14 = getelementptr inbounds ptr, ptr %13, i64 %6
  %15 = load ptr, ptr %14, align 8, !tbaa !45
  %16 = getelementptr inbounds nuw i8, ptr %15, i64 80
  tail call void @av_dict_free(ptr noundef nonnull %16) #9
  %17 = load ptr, ptr %7, align 8, !tbaa !51
  %18 = getelementptr inbounds nuw i8, ptr %7, i64 16
  %19 = load i32, ptr %18, align 8, !tbaa !54
  %20 = zext i32 %19 to i64
  %21 = getelementptr inbounds nuw i8, ptr %17, i64 %20
  %22 = getelementptr inbounds nuw i8, ptr %21, i64 7
  %23 = load i32, ptr %8, align 4, !tbaa !59
  %24 = add i32 %23, -8
  %25 = tail call i32 @ff_vorbis_comment(ptr noundef nonnull %0, ptr noundef nonnull %16, ptr noundef nonnull %22, i32 noundef %24, i32 noundef 1)
  %26 = icmp sgt i32 %25, 0
  br i1 %26, label %ff_vorbis_stream_comment.exit.thread, label %ff_vorbis_stream_comment.exit

ff_vorbis_stream_comment.exit.thread:             ; preds = %11
  %27 = getelementptr inbounds nuw i8, ptr %15, i64 200
  %28 = load i32, ptr %27, align 8, !tbaa !4
  %29 = or i32 %28, 1
  store i32 %29, ptr %27, align 8, !tbaa !4
  br label %31

ff_vorbis_stream_comment.exit:                    ; preds = %11
  %30 = icmp slt i32 %25, 0
  br i1 %30, label %40, label %31

31:                                               ; preds = %ff_vorbis_stream_comment.exit.thread, %ff_vorbis_stream_comment.exit
  %32 = getelementptr inbounds nuw i8, ptr %7, i64 408
  tail call void @av_freep(ptr noundef nonnull %32) #9
  %33 = load ptr, ptr %16, align 8, !tbaa !68
  %.not = icmp eq ptr %33, null
  br i1 %.not, label %37, label %34

34:                                               ; preds = %31
  %35 = getelementptr inbounds nuw i8, ptr %7, i64 416
  %36 = tail call ptr @av_packet_pack_dictionary(ptr noundef nonnull %33, ptr noundef nonnull %35) #9
  store ptr %36, ptr %32, align 8, !tbaa !86
  br label %40

37:                                               ; preds = %31
  %38 = tail call noalias ptr @av_mallocz(i64 noundef 1) #9
  store ptr %38, ptr %32, align 8, !tbaa !86
  %39 = getelementptr inbounds nuw i8, ptr %7, i64 416
  store i64 0, ptr %39, align 8, !tbaa !87
  br label %40

40:                                               ; preds = %34, %37, %ff_vorbis_stream_comment.exit, %2
  %.0 = phi i32 [ 0, %2 ], [ %25, %ff_vorbis_stream_comment.exit ], [ %25, %37 ], [ %25, %34 ]
  ret i32 %.0
}